target datalayout = "e-m:e-p270:32:32-p271:32:32-p272:64:64-i64:64-i128:128-f80:128-n8:16:32:64-S128"
target triple = "x86_64-pc-linux-gnu"

%struct.DeviceCounts = type { ptr, i64, %struct.IOCounts, ptr }
%struct.IOCounts = type { i64, i64, i64, i64 }

; Function Attrs: nounwind sspstrong uwtable
define internal i32 @sort_cmp(ptr noundef %0, ptr noundef %1) #0 {
  %3 = alloca ptr, align 8
  %4 = alloca ptr, align 8
  %5 = alloca ptr, align 8
  %6 = alloca ptr, align 8
  store ptr %0, ptr %3, align 8
  store ptr %1, ptr %4, align 8
  call void @llvm.lifetime.start.p0(i64 8, ptr %5) #9
  %7 = load ptr, ptr %3, align 8
  store ptr %7, ptr %5, align 8
  call void @llvm.lifetime.start.p0(i64 8, ptr %6) #9
  %8 = load ptr, ptr %4, align 8
  store ptr %8, ptr %6, align 8
  %9 = load ptr, ptr %5, align 8
  %10 = getelementptr inbounds nuw %struct.DeviceCounts, ptr %9, i32 0, i32 2
  %11 = getelementptr inbounds nuw %struct.IOCounts, ptr %10, i32 0, i32 2
  %12 = load i64, ptr %11, align 8
  %13 = load ptr, ptr %5, align 8
  %14 = getelementptr inbounds nuw %struct.DeviceCounts, ptr %13, i32 0, i32 2
  %15 = getelementptr inbounds nuw %struct.IOCounts, ptr %14, i32 0, i32 3
  %16 = load i64, ptr %15, align 8
  %17 = add i64 %12, %16
  %18 = load ptr, ptr %6, align 8
  %19 = getelementptr inbounds nuw %struct.DeviceCounts, ptr %18, i32 0, i32 2
  %20 = getelementptr inbounds nuw %struct.IOCounts, ptr %19, i32 0, i32 2
  %21 = load i64, ptr %20, align 8
  %22 = load ptr, ptr %6, align 8
  %23 = getelementptr inbounds nuw %struct.DeviceCounts, ptr %22, i32 0, i32 2
  %24 = getelementptr inbounds nuw %struct.IOCounts, ptr %23, i32 0, i32 3
  %25 = load i64, ptr %24, align 8
  %26 = add i64 %21, %25
  %27 = icmp ugt i64 %17, %26
  %28 = select i1 %27, i32 -1, i32 1
  call void @llvm.lifetime.end.p0(i64 8, ptr %6) #9
  call void @llvm.lifetime.end.p0(i64 8, ptr %5) #9
  ret i32 %28
}